; Function Attrs: nofree norecurse nosync nounwind memory(argmem: readwrite) uwtable
define internal void @tm_8x8_c(ptr noundef writeonly captures(none) %0, i64 noundef %1, ptr noundef readonly captures(none) %2, ptr noundef readonly captures(none) %3) #3 {
  %5 = getelementptr inbounds i8, ptr %3, i64 -2
  %6 = load i16, ptr %5, align 2, !tbaa !8
  %7 = zext i16 %6 to i32
  %8 = lshr i64 %1, 1
  %9 = getelementptr inbounds nuw i8, ptr %3, i64 2
  %10 = getelementptr inbounds nuw i8, ptr %3, i64 4
  %11 = getelementptr inbounds nuw i8, ptr %3, i64 6
  %12 = getelementptr inbounds nuw i8, ptr %3, i64 8
  %13 = getelementptr inbounds nuw i8, ptr %3, i64 10
  %14 = getelementptr inbounds nuw i8, ptr %3, i64 12
  %15 = getelementptr inbounds nuw i8, ptr %3, i64 14
  br label %16

16:                                               ; preds = %4, %16
  %indvars.iv = phi i64 [ 0, %4 ], [ %indvars.iv.next, %16 ]
  %.058 = phi ptr [ %0, %4 ], [ %77, %16 ]
  %17 = sub nuw nsw i64 7, %indvars.iv
  %18 = getelementptr inbounds nuw i16, ptr %2, i64 %17
  %19 = load i16, ptr %18, align 2, !tbaa !8
  %20 = zext i16 %19 to i32
  %21 = sub nsw i32 %20, %7
  %22 = load i16, ptr %3, align 2, !tbaa !8
  %23 = zext i16 %22 to i32
  %24 = add nsw i32 %21, %23
  %25 = tail call i32 @llvm.smax.i32(i32 %24, i32 0)
  %26 = tail call i32 @llvm.umin.i32(i32 %25, i32 4095)
  %27 = trunc nuw nsw i32 %26 to i16
  store i16 %27, ptr %.058, align 2, !tbaa !8
  %28 = load i16, ptr %9, align 2, !tbaa !8
  %29 = zext i16 %28 to i32
  %30 = add nsw i32 %21, %29
  %31 = tail call i32 @llvm.smax.i32(i32 %30, i32 0)
  %32 = tail call i32 @llvm.umin.i32(i32 %31, i32 4095)
  %33 = trunc nuw nsw i32 %32 to i16
  %34 = getelementptr inbounds nuw i8, ptr %.058, i64 2
  store i16 %33, ptr %34, align 2, !tbaa !8
  %35 = load i16, ptr %10, align 2, !tbaa !8
  %36 = zext i16 %35 to i32
  %37 = add nsw i32 %21, %36
  %38 = tail call i32 @llvm.smax.i32(i32 %37, i32 0)
  %39 = tail call i32 @llvm.umin.i32(i32 %38, i32 4095)
  %40 = trunc nuw nsw i32 %39 to i16
  %41 = getelementptr inbounds nuw i8, ptr %.058, i64 4
  store i16 %40, ptr %41, align 2, !tbaa !8
  %42 = load i16, ptr %11, align 2, !tbaa !8
  %43 = zext i16 %42 to i32
  %44 = add nsw i32 %21, %43
  %45 = tail call i32 @llvm.smax.i32(i32 %44, i32 0)
  %46 = tail call i32 @llvm.umin.i32(i32 %45, i32 4095)
  %47 = trunc nuw nsw i32 %46 to i16
  %48 = getelementptr inbounds nuw i8, ptr %.058, i64 6
  store i16 %47, ptr %48, align 2, !tbaa !8
  %49 = load i16, ptr %12, align 2, !tbaa !8
  %50 = zext i16 %49 to i32
  %51 = add nsw i32 %21, %50
  %52 = tail call i32 @llvm.smax.i32(i32 %51, i32 0)
  %53 = tail call i32 @llvm.umin.i32(i32 %52, i32 4095)
  %54 = trunc nuw nsw i32 %53 to i16
  %55 = getelementptr inbounds nuw i8, ptr %.058, i64 8
  store i16 %54, ptr %55, align 2, !tbaa !8
  %56 = load i16, ptr %13, align 2, !tbaa !8
  %57 = zext i16 %56 to i32
  %58 = add nsw i32 %21, %57
  %59 = tail call i32 @llvm.smax.i32(i32 %58, i32 0)
  %60 = tail call i32 @llvm.umin.i32(i32 %59, i32 4095)
  %61 = trunc nuw nsw i32 %60 to i16
  %62 = getelementptr inbounds nuw i8, ptr %.058, i64 10
  store i16 %61, ptr %62, align 2, !tbaa !8
  %63 = load i16, ptr %14, align 2, !tbaa !8
  %64 = zext i16 %63 to i32
  %65 = add nsw i32 %21, %64
  %66 = tail call i32 @llvm.smax.i32(i32 %65, i32 0)
  %67 = tail call i32 @llvm.umin.i32(i32 %66, i32 4095)
  %68 = trunc nuw nsw i32 %67 to i16
  %69 = getelementptr inbounds nuw i8, ptr %.058, i64 12
  store i16 %68, ptr %69, align 2, !tbaa !8
  %70 = load i16, ptr %15, align 2, !tbaa !8
  %71 = zext i16 %70 to i32
  %72 = add nsw i32 %21, %71
  %73 = tail call i32 @llvm.smax.i32(i32 %72, i32 0)
  %74 = tail call i32 @llvm.umin.i32(i32 %73, i32 4095)
  %75 = trunc nuw nsw i32 %74 to i16
  %76 = getelementptr inbounds nuw i8, ptr %.058, i64 14
  store i16 %75, ptr %76, align 2, !tbaa !8
  %77 = getelementptr inbounds nuw i16, ptr %.058, i64 %8
  %indvars.iv.next = add nuw nsw i64 %indvars.iv, 1
  %exitcond.not = icmp eq i64 %indvars.iv.next, 8
  br i1 %exitcond.not, label %78, label %16, !llvm.loop !13

78:                                               ; preds = %16
  ret void
}